target datalayout = "e-m:e-p270:32:32-p271:32:32-p272:64:64-i64:64-i128:128-f80:128-n8:16:32:64-S128"
target triple = "x86_64-pc-linux-gnu"

%struct.Nwk_Grf_t_ = type { i32, i32, i32, ptr, ptr, i32, i32, ptr, ptr, [17 x i32], [17 x i32], ptr, ptr, ptr, i32, i32 }
%struct.Vec_Int_t_ = type { i32, i32, ptr }

; Function Attrs: inlinehint nounwind uwtable
define internal void @Vec_IntGrow(ptr noundef %0, i32 noundef %1) #4 {
  %3 = alloca ptr, align 8
  %4 = alloca i32, align 4
  store ptr %0, ptr %3, align 8, !tbaa !25
  store i32 %1, ptr %4, align 4, !tbaa !3
  %5 = load ptr, ptr %3, align 8, !tbaa !25
  %6 = getelementptr inbounds nuw %struct.Vec_Int_t_, ptr %5, i32 0, i32 0
  %7 = load i32, ptr %6, align 8, !tbaa !28
  %8 = load i32, ptr %4, align 4, !tbaa !3
  %9 = icmp sge i32 %7, %8
  br i1 %9, label %10, label %11

10:                                               ; preds = %2
  br label %36

11:                                               ; preds = %2
  %12 = load ptr, ptr %3, align 8, !tbaa !25
  %13 = getelementptr inbounds nuw %struct.Vec_Int_t_, ptr %12, i32 0, i32 2
  %14 = load ptr, ptr %13, align 8, !tbaa !29
  %15 = icmp ne ptr %14, null
  br i1 %15, label %16, label %24

16:                                               ; preds = %11
  %17 = load ptr, ptr %3, align 8, !tbaa !25
  %18 = getelementptr inbounds nuw %struct.Vec_Int_t_, ptr %17, i32 0, i32 2
  %19 = load ptr, ptr %18, align 8, !tbaa !29
  %20 = load i32, ptr %4, align 4, !tbaa !3
  %21 = sext i32 %20 to i64
  %22 = mul i64 4, %21
  %23 = call ptr @realloc(ptr noundef %19, i64 noundef %22) #15
  br label %29

24:                                               ; preds = %11
  %25 = load i32, ptr %4, align 4, !tbaa !3
  %26 = sext i32 %25 to i64
  %27 = mul i64 4, %26
  %28 = call noalias ptr @malloc(i64 noundef %27) #12
  br label %29

29:                                               ; preds = %24, %16
  %30 = phi ptr [ %23, %16 ], [ %28, %24 ]
  %31 = load ptr, ptr %3, align 8, !tbaa !25
  %32 = getelementptr inbounds nuw %struct.Vec_Int_t_, ptr %31, i32 0, i32 2
  store ptr %30, ptr %32, align 8, !tbaa !29
  %33 = load i32, ptr %4, align 4, !tbaa !3
  %34 = load ptr, ptr %3, align 8, !tbaa !25
  %35 = getelementptr inbounds nuw %struct.Vec_Int_t_, ptr %34, i32 0, i32 0
  store i32 %33, ptr %35, align 8, !tbaa !28
  br label %36

36:                                               ; preds = %29, %10
  ret void
}

; Function Attrs: inlinehint nounwind uwtable
define internal void @Vec_IntPush(ptr noundef %0, i32 noundef %1) #4 {
  %3 = alloca ptr, align 8
  %4 = alloca i32, align 4
  store ptr %0, ptr %3, align 8, !tbaa !25
  store i32 %1, ptr %4, align 4, !tbaa !3
  %5 = load ptr, ptr %3, align 8, !tbaa !25
  %6 = getelementptr inbounds nuw %struct.Vec_Int_t_, ptr %5, i32 0, i32 1
  %7 = load i32, ptr %6, align 4, !tbaa !26
  %8 = load ptr, ptr %3, align 8, !tbaa !25
  %9 = getelementptr inbounds nuw %struct.Vec_Int_t_, ptr %8, i32 0, i32 0
  %10 = load i32, ptr %9, align 8, !tbaa !28
  %11 = icmp eq i32 %7, %10
  br i1 %11, label %12, label %26

12:                                               ; preds = %2
  %13 = load ptr, ptr %3, align 8, !tbaa !25
  %14 = getelementptr inbounds nuw %struct.Vec_Int_t_, ptr %13, i32 0, i32 0
  %15 = load i32, ptr %14, align 8, !tbaa !28
  %16 = icmp slt i32 %15, 16
  br i1 %16, label %17, label %19

17:                                               ; preds = %12
  %18 = load ptr, ptr %3, align 8, !tbaa !25
  call void @Vec_IntGrow(ptr noundef %18, i32 noundef 16)
  br label %25

19:                                               ; preds = %12
  %20 = load ptr, ptr %3, align 8, !tbaa !25
  %21 = load ptr, ptr %3, align 8, !tbaa !25
  %22 = getelementptr inbounds nuw %struct.Vec_Int_t_, ptr %21, i32 0, i32 0
  %23 = load i32, ptr %22, align 8, !tbaa !28
  %24 = mul nsw i32 2, %23
  call void @Vec_IntGrow(ptr noundef %20, i32 noundef %24)
  br label %25

25:                                               ; preds = %19, %17
  br label %26

26:                                               ; preds = %25, %2
  %27 = load i32, ptr %4, align 4, !tbaa !3
  %28 = load ptr, ptr %3, align 8, !tbaa !25
  %29 = getelementptr inbounds nuw %struct.Vec_Int_t_, ptr %28, i32 0, i32 2
  %30 = load ptr, ptr %29, align 8, !tbaa !29
  %31 = load ptr, ptr %3, align 8, !tbaa !25
  %32 = getelementptr inbounds nuw %struct.Vec_Int_t_, ptr %31, i32 0, i32 1
  %33 = load i32, ptr %32, align 4, !tbaa !26
  %34 = add nsw i32 %33, 1
  store i32 %34, ptr %32, align 4, !tbaa !26
  %35 = sext i32 %33 to i64
  %36 = getelementptr inbounds i32, ptr %30, i64 %35
  store i32 %27, ptr %36, align 4, !tbaa !3
  ret void
}

; Function Attrs: inlinehint nounwind uwtable
define internal void @Vec_IntClear(ptr noundef %0) #4 {
  %2 = alloca ptr, align 8
  store ptr %0, ptr %2, align 8, !tbaa !25
  %3 = load ptr, ptr %2, align 8, !tbaa !25
  %4 = getelementptr inbounds nuw %struct.Vec_Int_t_, ptr %3, i32 0, i32 1
  store i32 0, ptr %4, align 4, !tbaa !26
  ret void
}

; Function Attrs: inlinehint nounwind uwtable
define internal i32 @Vec_IntSize(ptr noundef %0) #4 {
  %2 = alloca ptr, align 8
  store ptr %0, ptr %2, align 8, !tbaa !25
  %3 = load ptr, ptr %2, align 8, !tbaa !25
  %4 = getelementptr inbounds nuw %struct.Vec_Int_t_, ptr %3, i32 0, i32 1
  %5 = load i32, ptr %4, align 4, !tbaa !26
  ret i32 %5
}

; Function Attrs: nounwind uwtable
define void @Nwk_ManGraphSortPairs(ptr noundef %0) #0 {
  %2 = alloca ptr, align 8
  %3 = alloca i32, align 4
  %4 = alloca ptr, align 8
  %5 = alloca i32, align 4
  store ptr %0, ptr %2, align 8, !tbaa !7
  call void @llvm.lifetime.start.p0(i64 4, ptr %3) #11
  %6 = load ptr, ptr %2, align 8, !tbaa !7
  %7 = getelementptr inbounds nuw %struct.Nwk_Grf_t_, ptr %6, i32 0, i32 11
  %8 = load ptr, ptr %7, align 8, !tbaa !21
  %9 = call i32 @Vec_IntSize(ptr noundef %8)
  store i32 %9, ptr %3, align 4, !tbaa !3
  call void @llvm.lifetime.start.p0(i64 8, ptr %4) #11
  call void @llvm.lifetime.start.p0(i64 4, ptr %5) #11
  %10 = load ptr, ptr %2, align 8, !tbaa !7
  %11 = getelementptr inbounds nuw %struct.Nwk_Grf_t_, ptr %10, i32 0, i32 0
  %12 = load i32, ptr %11, align 8, !tbaa !34
  %13 = add nsw i32 %12, 1
  %14 = sext i32 %13 to i64
  %15 = mul i64 4, %14
  %16 = call noalias ptr @malloc(i64 noundef %15) #12
  store ptr %16, ptr %4, align 8, !tbaa !49
  store i32 0, ptr %5, align 4, !tbaa !3
  br label %17

17:                                               ; preds = %28, %1
  %18 = load i32, ptr %5, align 4, !tbaa !3
  %19 = load ptr, ptr %2, align 8, !tbaa !7
  %20 = getelementptr inbounds nuw %struct.Nwk_Grf_t_, ptr %19, i32 0, i32 0
  %21 = load i32, ptr %20, align 8, !tbaa !34
  %22 = icmp sle i32 %18, %21
  br i1 %22, label %23, label %31

23:                                               ; preds = %17
  %24 = load ptr, ptr %4, align 8, !tbaa !49
  %25 = load i32, ptr %5, align 4, !tbaa !3
  %26 = sext i32 %25 to i64
  %27 = getelementptr inbounds i32, ptr %24, i64 %26
  store i32 -1, ptr %27, align 4, !tbaa !3
  br label %28

28:                                               ; preds = %23
  %29 = load i32, ptr %5, align 4, !tbaa !3
  %30 = add nsw i32 %29, 1
  store i32 %30, ptr %5, align 4, !tbaa !3
  br label %17, !llvm.loop !61

31:                                               ; preds = %17
  store i32 0, ptr %5, align 4, !tbaa !3
  br label %32

32:                                               ; preds = %63, %31
  %33 = load i32, ptr %5, align 4, !tbaa !3
  %34 = load ptr, ptr %2, align 8, !tbaa !7
  %35 = getelementptr inbounds nuw %struct.Nwk_Grf_t_, ptr %34, i32 0, i32 11
  %36 = load ptr, ptr %35, align 8, !tbaa !21
  %37 = getelementptr inbounds nuw %struct.Vec_Int_t_, ptr %36, i32 0, i32 1
  %38 = load i32, ptr %37, align 4, !tbaa !26
  %39 = icmp slt i32 %33, %38
  br i1 %39, label %40, label %66

40:                                               ; preds = %32
  %41 = load ptr, ptr %2, align 8, !tbaa !7
  %42 = getelementptr inbounds nuw %struct.Nwk_Grf_t_, ptr %41, i32 0, i32 11
  %43 = load ptr, ptr %42, align 8, !tbaa !21
  %44 = getelementptr inbounds nuw %struct.Vec_Int_t_, ptr %43, i32 0, i32 2
  %45 = load ptr, ptr %44, align 8, !tbaa !29
  %46 = load i32, ptr %5, align 4, !tbaa !3
  %47 = add nsw i32 %46, 1
  %48 = sext i32 %47 to i64
  %49 = getelementptr inbounds i32, ptr %45, i64 %48
  %50 = load i32, ptr %49, align 4, !tbaa !3
  %51 = load ptr, ptr %4, align 8, !tbaa !49
  %52 = load ptr, ptr %2, align 8, !tbaa !7
  %53 = getelementptr inbounds nuw %struct.Nwk_Grf_t_, ptr %52, i32 0, i32 11
  %54 = load ptr, ptr %53, align 8, !tbaa !21
  %55 = getelementptr inbounds nuw %struct.Vec_Int_t_, ptr %54, i32 0, i32 2
  %56 = load ptr, ptr %55, align 8, !tbaa !29
  %57 = load i32, ptr %5, align 4, !tbaa !3
  %58 = sext i32 %57 to i64
  %59 = getelementptr inbounds i32, ptr %56, i64 %58
  %60 = load i32, ptr %59, align 4, !tbaa !3
  %61 = sext i32 %60 to i64
  %62 = getelementptr inbounds i32, ptr %51, i64 %61
  store i32 %50, ptr %62, align 4, !tbaa !3
  br label %63

63:                                               ; preds = %40
  %64 = load i32, ptr %5, align 4, !tbaa !3
  %65 = add nsw i32 %64, 2
  store i32 %65, ptr %5, align 4, !tbaa !3
  br label %32, !llvm.loop !62

66:                                               ; preds = %32
  %67 = load ptr, ptr %2, align 8, !tbaa !7
  %68 = getelementptr inbounds nuw %struct.Nwk_Grf_t_, ptr %67, i32 0, i32 11
  %69 = load ptr, ptr %68, align 8, !tbaa !21
  call void @Vec_IntClear(ptr noundef %69)
  store i32 0, ptr %5, align 4, !tbaa !3
  br label %70

70:                                               ; preds = %97, %66
  %71 = load i32, ptr %5, align 4, !tbaa !3
  %72 = load ptr, ptr %2, align 8, !tbaa !7
  %73 = getelementptr inbounds nuw %struct.Nwk_Grf_t_, ptr %72, i32 0, i32 0
  %74 = load i32, ptr %73, align 8, !tbaa !34
  %75 = icmp sle i32 %71, %74
  br i1 %75, label %76, label %100

76:                                               ; preds = %70
  %77 = load ptr, ptr %4, align 8, !tbaa !49
  %78 = load i32, ptr %5, align 4, !tbaa !3
  %79 = sext i32 %78 to i64
  %80 = getelementptr inbounds i32, ptr %77, i64 %79
  %81 = load i32, ptr %80, align 4, !tbaa !3
  %82 = icmp sge i32 %81, 0
  br i1 %82, label %83, label %96

83:                                               ; preds = %76
  %84 = load ptr, ptr %2, align 8, !tbaa !7
  %85 = getelementptr inbounds nuw %struct.Nwk_Grf_t_, ptr %84, i32 0, i32 11
  %86 = load ptr, ptr %85, align 8, !tbaa !21
  %87 = load i32, ptr %5, align 4, !tbaa !3
  call void @Vec_IntPush(ptr noundef %86, i32 noundef %87)
  %88 = load ptr, ptr %2, align 8, !tbaa !7
  %89 = getelementptr inbounds nuw %struct.Nwk_Grf_t_, ptr %88, i32 0, i32 11
  %90 = load ptr, ptr %89, align 8, !tbaa !21
  %91 = load ptr, ptr %4, align 8, !tbaa !49
  %92 = load i32, ptr %5, align 4, !tbaa !3
  %93 = sext i32 %92 to i64
  %94 = getelementptr inbounds i32, ptr %91, i64 %93
  %95 = load i32, ptr %94, align 4, !tbaa !3
  call void @Vec_IntPush(ptr noundef %90, i32 noundef %95)
  br label %96

96:                                               ; preds = %83, %76
  br label %97

97:                                               ; preds = %96
  %98 = load i32, ptr %5, align 4, !tbaa !3
  %99 = add nsw i32 %98, 1
  store i32 %99, ptr %5, align 4, !tbaa !3
  br label %70, !llvm.loop !63

100:                                              ; preds = %70
  %101 = load ptr, ptr %4, align 8, !tbaa !49
  %102 = icmp ne ptr %101, null
  br i1 %102, label %103, label %105

103:                                              ; preds = %100
  %104 = load ptr, ptr %4, align 8, !tbaa !49
  call void @free(ptr noundef %104) #11
  store ptr null, ptr %4, align 8, !tbaa !49
  br label %106

105:                                              ; preds = %100
  br label %106

106:                                              ; preds = %105, %103
  call void @llvm.lifetime.end.p0(i64 4, ptr %5) #11
  call void @llvm.lifetime.end.p0(i64 8, ptr %4) #11
  call void @llvm.lifetime.end.p0(i64 4, ptr %3) #11
  ret void
}