; Function Attrs: nounwind uwtable
define void @Nwk_ManGraphSortPairs(ptr noundef readonly captures(none) %0) local_unnamed_addr #0 {
  %2 = getelementptr inbounds nuw i8, ptr %0, i64 192
  %3 = load ptr, ptr %2, align 8, !tbaa !25
  %4 = getelementptr i8, ptr %3, i64 4
  %5 = load i32, ptr %0, align 8, !tbaa !30
  %6 = add i32 %5, 1
  %7 = sext i32 %6 to i64
  %8 = shl nsw i64 %7, 2
  %9 = tail call noalias ptr @malloc(i64 noundef %8) #21
  %.not37 = icmp slt i32 %5, 0
  br i1 %.not37, label %.preheader, label %.lr.ph.preheader

.lr.ph.preheader:                                 ; preds = %1
  %10 = zext i32 %6 to i64
  %11 = shl nuw nsw i64 %10, 2
  tail call void @llvm.memset.p0.i64(ptr align 4 %9, i8 -1, i64 %11, i1 false), !tbaa !42
  br label %.preheader

.preheader:                                       ; preds = %.lr.ph.preheader, %1
  %12 = load i32, ptr %4, align 4, !tbaa !21
  %13 = icmp sgt i32 %12, 0
  br i1 %13, label %.lr.ph40, label %._crit_edge

.lr.ph40:                                         ; preds = %.preheader
  %14 = getelementptr inbounds nuw i8, ptr %3, i64 8
  %15 = load ptr, ptr %14, align 8, !tbaa !24
  %16 = zext nneg i32 %12 to i64
  br label %17

17:                                               ; preds = %.lr.ph40, %17
  %indvars.iv = phi i64 [ 0, %.lr.ph40 ], [ %indvars.iv.next, %17 ]
  %18 = or disjoint i64 %indvars.iv, 1
  %19 = getelementptr inbounds nuw i32, ptr %15, i64 %18
  %20 = load i32, ptr %19, align 4, !tbaa !42
  %21 = getelementptr inbounds nuw i32, ptr %15, i64 %indvars.iv
  %22 = load i32, ptr %21, align 4, !tbaa !42
  %23 = sext i32 %22 to i64
  %24 = getelementptr inbounds i32, ptr %9, i64 %23
  store i32 %20, ptr %24, align 4, !tbaa !42
  %indvars.iv.next = add nuw nsw i64 %indvars.iv, 2
  %25 = icmp samesign ult i64 %indvars.iv.next, %16
  br i1 %25, label %17, label %._crit_edge, !llvm.loop !59

._crit_edge:                                      ; preds = %17, %.preheader
  store i32 0, ptr %4, align 4, !tbaa !21
  br i1 %.not37, label %._crit_edge45, label %.lr.ph44

.lr.ph44:                                         ; preds = %._crit_edge, %97
  %26 = phi i32 [ %98, %97 ], [ %5, %._crit_edge ]
  %indvars.iv48 = phi i64 [ %indvars.iv.next49, %97 ], [ 0, %._crit_edge ]
  %27 = getelementptr inbounds nuw i32, ptr %9, i64 %indvars.iv48
  %28 = load i32, ptr %27, align 4, !tbaa !42
  %29 = icmp sgt i32 %28, -1
  br i1 %29, label %30, label %97

30:                                               ; preds = %.lr.ph44
  %31 = load ptr, ptr %2, align 8, !tbaa !25
  %32 = getelementptr inbounds nuw i8, ptr %31, i64 4
  %33 = load i32, ptr %32, align 4, !tbaa !21
  %34 = load i32, ptr %31, align 8, !tbaa !23
  %35 = icmp eq i32 %33, %34
  br i1 %35, label %36, label %.Vec_IntGrow.exit10_crit_edge.i

.Vec_IntGrow.exit10_crit_edge.i:                  ; preds = %30
  %.phi.trans.insert.i = getelementptr inbounds nuw i8, ptr %31, i64 8
  %.pre.i = load ptr, ptr %.phi.trans.insert.i, align 8, !tbaa !24
  br label %Vec_IntPush.exit

36:                                               ; preds = %30
  %37 = icmp slt i32 %33, 16
  br i1 %37, label %38, label %46

38:                                               ; preds = %36
  %39 = getelementptr inbounds nuw i8, ptr %31, i64 8
  %40 = load ptr, ptr %39, align 8, !tbaa !24
  %.not9.i.i = icmp eq ptr %40, null
  br i1 %.not9.i.i, label %43, label %41

41:                                               ; preds = %38
  %42 = tail call dereferenceable_or_null(64) ptr @realloc(ptr noundef nonnull %40, i64 noundef 64) #22
  br label %Vec_IntGrow.exit.i

43:                                               ; preds = %38
  %44 = tail call noalias dereferenceable_or_null(64) ptr @malloc(i64 noundef 64) #21
  br label %Vec_IntGrow.exit.i

Vec_IntGrow.exit.i:                               ; preds = %43, %41
  %45 = phi ptr [ %42, %41 ], [ %44, %43 ]
  store ptr %45, ptr %39, align 8, !tbaa !24
  store i32 16, ptr %31, align 8, !tbaa !23
  br label %Vec_IntPush.exit

46:                                               ; preds = %36
  %47 = shl nuw nsw i32 %33, 1
  %48 = getelementptr inbounds nuw i8, ptr %31, i64 8
  %49 = load ptr, ptr %48, align 8, !tbaa !24
  %.not9.i9.i = icmp eq ptr %49, null
  %50 = zext nneg i32 %47 to i64
  %51 = shl nuw nsw i64 %50, 2
  br i1 %.not9.i9.i, label %54, label %52

52:                                               ; preds = %46
  %53 = tail call ptr @realloc(ptr noundef nonnull %49, i64 noundef %51) #22
  br label %56

54:                                               ; preds = %46
  %55 = tail call noalias ptr @malloc(i64 noundef %51) #21
  br label %56

56:                                               ; preds = %54, %52
  %57 = phi ptr [ %53, %52 ], [ %55, %54 ]
  store ptr %57, ptr %48, align 8, !tbaa !24
  store i32 %47, ptr %31, align 8, !tbaa !23
  br label %Vec_IntPush.exit

Vec_IntPush.exit:                                 ; preds = %.Vec_IntGrow.exit10_crit_edge.i, %Vec_IntGrow.exit.i, %56
  %58 = phi ptr [ %.pre.i, %.Vec_IntGrow.exit10_crit_edge.i ], [ %57, %56 ], [ %45, %Vec_IntGrow.exit.i ]
  %59 = load i32, ptr %32, align 4, !tbaa !21
  %60 = add nsw i32 %59, 1
  store i32 %60, ptr %32, align 4, !tbaa !21
  %61 = sext i32 %59 to i64
  %62 = getelementptr inbounds i32, ptr %58, i64 %61
  %63 = trunc nuw nsw i64 %indvars.iv48 to i32
  store i32 %63, ptr %62, align 4, !tbaa !42
  %64 = load ptr, ptr %2, align 8, !tbaa !25
  %65 = load i32, ptr %27, align 4, !tbaa !42
  %66 = getelementptr inbounds nuw i8, ptr %64, i64 4
  %67 = load i32, ptr %66, align 4, !tbaa !21
  %68 = load i32, ptr %64, align 8, !tbaa !23
  %69 = icmp eq i32 %67, %68
  br i1 %69, label %70, label %.Vec_IntGrow.exit10_crit_edge.i30

.Vec_IntGrow.exit10_crit_edge.i30:                ; preds = %Vec_IntPush.exit
  %.phi.trans.insert.i31 = getelementptr inbounds nuw i8, ptr %64, i64 8
  %.pre.i32 = load ptr, ptr %.phi.trans.insert.i31, align 8, !tbaa !24
  br label %Vec_IntPush.exit36

70:                                               ; preds = %Vec_IntPush.exit
  %71 = icmp slt i32 %67, 16
  br i1 %71, label %72, label %80

72:                                               ; preds = %70
  %73 = getelementptr inbounds nuw i8, ptr %64, i64 8
  %74 = load ptr, ptr %73, align 8, !tbaa !24
  %.not9.i.i34 = icmp eq ptr %74, null
  br i1 %.not9.i.i34, label %77, label %75

75:                                               ; preds = %72
  %76 = tail call dereferenceable_or_null(64) ptr @realloc(ptr noundef nonnull %74, i64 noundef 64) #22
  br label %Vec_IntGrow.exit.i35

77:                                               ; preds = %72
  %78 = tail call noalias dereferenceable_or_null(64) ptr @malloc(i64 noundef 64) #21
  br label %Vec_IntGrow.exit.i35

Vec_IntGrow.exit.i35:                             ; preds = %77, %75
  %79 = phi ptr [ %76, %75 ], [ %78, %77 ]
  store ptr %79, ptr %73, align 8, !tbaa !24
  store i32 16, ptr %64, align 8, !tbaa !23
  br label %Vec_IntPush.exit36

80:                                               ; preds = %70
  %81 = shl nuw nsw i32 %67, 1
  %82 = getelementptr inbounds nuw i8, ptr %64, i64 8
  %83 = load ptr, ptr %82, align 8, !tbaa !24
  %.not9.i9.i33 = icmp eq ptr %83, null
  %84 = zext nneg i32 %81 to i64
  %85 = shl nuw nsw i64 %84, 2
  br i1 %.not9.i9.i33, label %88, label %86

86:                                               ; preds = %80
  %87 = tail call ptr @realloc(ptr noundef nonnull %83, i64 noundef %85) #22
  br label %90

88:                                               ; preds = %80
  %89 = tail call noalias ptr @malloc(i64 noundef %85) #21
  br label %90

90:                                               ; preds = %88, %86
  %91 = phi ptr [ %87, %86 ], [ %89, %88 ]
  store ptr %91, ptr %82, align 8, !tbaa !24
  store i32 %81, ptr %64, align 8, !tbaa !23
  br label %Vec_IntPush.exit36

Vec_IntPush.exit36:                               ; preds = %.Vec_IntGrow.exit10_crit_edge.i30, %Vec_IntGrow.exit.i35, %90
  %92 = phi ptr [ %.pre.i32, %.Vec_IntGrow.exit10_crit_edge.i30 ], [ %91, %90 ], [ %79, %Vec_IntGrow.exit.i35 ]
  %93 = load i32, ptr %66, align 4, !tbaa !21
  %94 = add nsw i32 %93, 1
  store i32 %94, ptr %66, align 4, !tbaa !21
  %95 = sext i32 %93 to i64
  %96 = getelementptr inbounds i32, ptr %92, i64 %95
  store i32 %65, ptr %96, align 4, !tbaa !42
  %.pre = load i32, ptr %0, align 8, !tbaa !30
  br label %97

97:                                               ; preds = %.lr.ph44, %Vec_IntPush.exit36
  %98 = phi i32 [ %26, %.lr.ph44 ], [ %.pre, %Vec_IntPush.exit36 ]
  %indvars.iv.next49 = add nuw nsw i64 %indvars.iv48, 1
  %99 = sext i32 %98 to i64
  %.not28.not = icmp slt i64 %indvars.iv48, %99
  br i1 %.not28.not, label %.lr.ph44, label %._crit_edge45.thread, !llvm.loop !60

._crit_edge45:                                    ; preds = %._crit_edge
  %.not29 = icmp eq ptr %9, null
  br i1 %.not29, label %100, label %._crit_edge45.thread

._crit_edge45.thread:                             ; preds = %97, %._crit_edge45
  tail call void @free(ptr noundef nonnull %9) #20
  br label %100

100:                                              ; preds = %._crit_edge45, %._crit_edge45.thread
  ret void
}